; Function Attrs: mustprogress uwtable
define noalias nonnull ptr @lean_float_array_mk(ptr noundef %0) local_unnamed_addr #0 {
  %2 = getelementptr i8, ptr %0, i64 8
  %.val = load i64, ptr %2, align 8, !tbaa !30
  %3 = shl i64 %.val, 3
  %4 = add i64 %3, 24
  %5 = tail call noalias ptr @mi_malloc(i64 noundef %4) #40
  %6 = icmp eq ptr %5, null
  br i1 %6, label %7, label %_ZL17lean_alloc_sarrayjmm.exit

7:                                                ; preds = %1
  tail call void @lean_internal_panic_out_of_memory() #43
  unreachable

_ZL17lean_alloc_sarrayjmm.exit:                   ; preds = %1
  %8 = getelementptr inbounds nuw i8, ptr %5, i64 4
  store i32 1, ptr %5, align 4, !tbaa !23
  store i32 -133693440, ptr %8, align 4
  %9 = getelementptr inbounds nuw i8, ptr %5, i64 8
  store i64 %.val, ptr %9, align 8, !tbaa !30
  %10 = getelementptr inbounds nuw i8, ptr %5, i64 16
  store i64 %.val, ptr %10, align 8, !tbaa !30
  %11 = getelementptr inbounds nuw i8, ptr %0, i64 %3
  %.ptr20 = getelementptr inbounds nuw i8, ptr %11, i64 24
  %.not17 = icmp eq i64 %.val, 0
  br i1 %.not17, label %._crit_edge, label %.lr.ph.preheader

.lr.ph.preheader:                                 ; preds = %_ZL17lean_alloc_sarrayjmm.exit
  %12 = getelementptr inbounds nuw i8, ptr %5, i64 24
  %.ptr = getelementptr inbounds nuw i8, ptr %0, i64 24
  br label %.lr.ph

.lr.ph:                                           ; preds = %.lr.ph.preheader, %.lr.ph
  %.019 = phi ptr [ %16, %.lr.ph ], [ %12, %.lr.ph.preheader ]
  %.01418 = phi ptr [ %15, %.lr.ph ], [ %.ptr, %.lr.ph.preheader ]
  %13 = load ptr, ptr %.01418, align 8, !tbaa !31
  %14 = getelementptr i8, ptr %13, i64 8
  %.val15 = load double, ptr %14, align 8, !tbaa !157
  store double %.val15, ptr %.019, align 8, !tbaa !157
  %15 = getelementptr inbounds nuw i8, ptr %.01418, i64 8
  %16 = getelementptr inbounds nuw i8, ptr %.019, i64 8
  %.not = icmp eq ptr %15, %.ptr20
  br i1 %.not, label %._crit_edge, label %.lr.ph, !llvm.loop !185

._crit_edge:                                      ; preds = %.lr.ph, %_ZL17lean_alloc_sarrayjmm.exit
  %17 = ptrtoint ptr %0 to i64
  %18 = and i64 %17, 1
  %.not16 = icmp eq i64 %18, 0
  br i1 %.not16, label %19, label %_ZL8lean_decP11lean_object.exit

19:                                               ; preds = %._crit_edge
  %20 = load i32, ptr %0, align 4, !tbaa !23
  %21 = icmp sgt i32 %20, 1
  br i1 %21, label %22, label %24, !prof !25

22:                                               ; preds = %19
  %23 = add nsw i32 %20, -1
  store i32 %23, ptr %0, align 4, !tbaa !23
  br label %_ZL8lean_decP11lean_object.exit

24:                                               ; preds = %19
  %.not.i = icmp eq i32 %20, 0
  br i1 %.not.i, label %_ZL8lean_decP11lean_object.exit, label %25

25:                                               ; preds = %24
  tail call void @lean_dec_ref_cold(ptr noundef nonnull %0)
  br label %_ZL8lean_decP11lean_object.exit

_ZL8lean_decP11lean_object.exit:                  ; preds = %25, %24, %22, %._crit_edge
  ret ptr %5
}